Certificate:
    Data:
        Version: 3 (0x2)
        Serial Number: 1 (0x1)
    Signature Algorithm: sha256WithRSAEncryption
        Issuer: C=CN, ST=SH, L=SH, O=ZhiSheng Inc, OU=Cert, CN=RootCA
        Validity
            Not Before: Oct 28 08:31:58 2015 GMT
            Not After : Oct 27 08:31:58 2016 GMT
        Subject: C=CN, ST=SH, O=ZhiSheng Inc, OU=Cert Agency, CN=AgencyCA
        Subject Public Key Info:
            Public Key Algorithm: rsaEncryption
                Public-Key: (1024 bit)
                Modulus:
                    00:b1:29:df:d4:5f:cd:e6:77:13:1f:b8:7e:2d:ef:
                    6e:2d:2b:8d:5c:90:aa:81:7c:5c:72:a5:bc:a8:a4:
                    e6:78:92:e4:35:88:99:71:39:36:fb:4d:99:3a:1c:
                    c9:b0:4c:f1:17:87:90:a7:d6:ba:58:5a:f6:68:63:
                    9d:43:a4:aa:2b:20:b8:d9:9d:12:97:e6:e0:01:bf:
                    35:00:08:9b:72:ae:f3:b7:a7:33:4a:01:c8:dc:da:
                    7b:ac:29:de:16:8e:fa:e4:50:a6:02:82:17:07:67:
                    f8:03:f4:cf:69:0f:2c:97:d8:6f:6c:95:d3:15:80:
                    97:2d:b1:27:0d:e3:5c:da:4f
                Exponent: 65537 (0x10001)
        X509v3 extensions:
            X509v3 Subject Key Identifier: 
                B5:2E:F5:5A:BC:74:43:57:26:C4:3C:49:56:72:B3:E5:10:78:9D:02
            X509v3 Authority Key Identifier: 
                keyid:16:86:FB:F5:33:D6:24:46:54:E6:ED:72:7A:6B:DD:17:5D:92:54:5E

            X509v3 Basic Constraints: 
                CA:TRUE
    Signature Algorithm: sha256WithRSAEncryption
         7e:13:6e:97:b9:34:1e:37:f3:f5:75:6a:85:1e:2d:c9:7e:12:
         c3:3e:cc:2b:30:e7:08:c8:8c:8f:8b:08:51:e4:d3:16:c2:fe:
         a6:68:34:c1:1f:5a:0b:f4:5e:65:60:1f:71:fc:7b:34:b8:2b:
         2b:d8:7c:94:c8:34:59:13:00:1f:49:6e:61:3c:6b:cf:16:a0:
         72:9e:9c:54:56:b0:dc:9e:f2:57:a4:eb:58:1b:94:3e:46:d1:
         10:e0:22:b8:06:9f:55:3b:9e:d8:2c:5b:1a:44:eb:ac:69:ac:
         c7:b0:ab:89:63:d7:b0:6a:99:fe:0b:e9:4f:99:30:2f:b9:6f:
         8b:93
-----BEGIN CERTIFICATE-----
MIICfjCCAeegAwIBAgIBATANBgkqhkiG9w0BAQsFADBeMQswCQYDVQQGEwJDTjEL
MAkGA1UECAwCU0gxCzAJBgNVBAcMAlNIMRUwEwYDVQQKDAxaaGlTaGVuZyBJbmMx
DTALBgNVBAsMBENlcnQxDzANBgNVBAMMBlJvb3RDQTAeFw0xNTEwMjgwODMxNTha
Fw0xNjEwMjcwODMxNThaMFoxCzAJBgNVBAYTAkNOMQswCQYDVQQIDAJTSDEVMBMG
A1UECgwMWmhpU2hlbmcgSW5jMRQwEgYDVQQLDAtDZXJ0IEFnZW5jeTERMA8GA1UE
AwwIQWdlbmN5Q0EwgZ8wDQYJKoZIhvcNAQEBBQADgY0AMIGJAoGBALEp39RfzeZ3
Ex+4fi3vbi0rjVyQqoF8XHKlvKik5niS5DWImXE5NvtNmTocybBM8ReHkKfWulha
9mhjnUOkqisguNmdEpfm4AG/NQAIm3Ku87enM0oByNzae6wp3haO+uRQpgKCFwdn
+AP0z2kPLJfYb2yV0xWAly2xJw3jXNpPAgMBAAGjUDBOMB0GA1UdDgQWBBS1LvVa
vHRDVybEPElWcrPlEHidAjAfBgNVHSMEGDAWgBQWhvv1M9YkRlTm7XJ6a90XXZJU
XjAMBgNVHRMEBTADAQH/MA0GCSqGSIb3DQEBCwUAA4GBAH4Tbpe5NB438/V1aoUe
Lcl+EsM+zCsw5wjIjI+LCFHk0xbC/qZoNMEfWgv0XmVgH3H8ezS4KyvYfJTINFkT
AB9JbmE8a88WoHKenFRWsNye8lek61gblD5G0RDgIrgGn1U7ntgsWxpE66xprMew
q4lj17Bqmf4L6U+ZMC+5b4uT
-----END CERTIFICATE-----
