Certificate:
    Data:
        Version: 3 (0x2)
        Serial Number: 1 (0x1)
    Signature Algorithm: sha256WithRSAEncryption
        Issuer: C=CN, ST=SH, O=ZhiSheng Inc, OU=Cert Agency, CN=AgencyCA
        Validity
            Not Before: Oct 30 14:05:28 2015 GMT
            Not After : Oct 27 14:05:28 2025 GMT
        Subject: C=CN, ST=SH, O=ZhiSheng Inc, OU=tiaonr, CN=www.tiaonr.com
        Subject Public Key Info:
            Public Key Algorithm: rsaEncryption
                Public-Key: (1024 bit)
                Modulus:
                    00:b6:9f:0f:2d:01:47:ed:c9:2e:3a:88:e2:04:3a:
                    91:63:d5:fb:2e:d8:78:6b:0a:fc:f3:ff:af:52:66:
                    f6:1c:a2:c2:47:b3:0a:ba:ad:6b:2c:3b:19:2a:48:
                    9c:79:ba:4a:d7:3e:74:3c:a7:e5:88:25:b8:b9:48:
                    f8:5c:76:f4:b7:72:1b:ea:cb:37:bd:d1:ab:e3:f6:
                    8b:37:41:a9:1b:b2:16:a4:2d:10:6f:02:5d:53:a4:
                    64:33:d4:7d:03:5d:e1:da:1b:f9:b5:a4:fd:04:c6:
                    60:a8:cc:37:47:89:14:2f:5a:74:99:8e:9b:aa:35:
                    8a:36:76:a7:94:4e:17:f4:bb
                Exponent: 65537 (0x10001)
        X509v3 extensions:
            X509v3 Basic Constraints: 
                CA:FALSE
            X509v3 Key Usage: 
                Digital Signature, Non Repudiation, Key Encipherment
            X509v3 Subject Alternative Name: 
                DNS:www.tiaonr.com, IP Address:192.168.137.128, IP Address:198.11.181.69
    Signature Algorithm: sha256WithRSAEncryption
         50:10:3c:91:95:bc:f0:e7:d0:22:5a:ed:da:17:6b:5a:1d:6c:
         80:b7:24:00:72:aa:12:8f:cb:89:06:11:d4:55:4e:a4:67:4e:
         02:e6:3b:d3:22:4b:7a:5b:54:5a:67:2b:ab:08:2b:b0:84:42:
         62:33:55:28:94:a3:84:ab:67:bf:6c:fc:c5:66:aa:dc:a4:1f:
         8a:9f:1a:ed:8c:d8:22:31:1c:dc:a1:11:82:f3:34:96:d5:64:
         74:e8:b5:74:87:f0:cd:81:8d:aa:70:04:de:dc:5b:c5:32:6e:
         57:f5:a4:db:d4:80:e0:56:06:cf:b3:c5:49:22:3a:d4:21:40:
         87:c9
-----BEGIN CERTIFICATE-----
MIICbDCCAdWgAwIBAgIBATANBgkqhkiG9w0BAQsFADBaMQswCQYDVQQGEwJDTjEL
MAkGA1UECAwCU0gxFTATBgNVBAoMDFpoaVNoZW5nIEluYzEUMBIGA1UECwwLQ2Vy
dCBBZ2VuY3kxETAPBgNVBAMMCEFnZW5jeUNBMB4XDTE1MTAzMDE0MDUyOFoXDTI1
MTAyNzE0MDUyOFowWzELMAkGA1UEBhMCQ04xCzAJBgNVBAgMAlNIMRUwEwYDVQQK
DAxaaGlTaGVuZyBJbmMxDzANBgNVBAsMBnRpYW9ucjEXMBUGA1UEAwwOd3d3LnRp
YW9uci5jb20wgZ8wDQYJKoZIhvcNAQEBBQADgY0AMIGJAoGBALafDy0BR+3JLjqI
4gQ6kWPV+y7YeGsK/PP/r1Jm9hyiwkezCrqtayw7GSpInHm6Stc+dDyn5YgluLlI
+Fx29LdyG+rLN73Rq+P2izdBqRuyFqQtEG8CXVOkZDPUfQNd4dob+bWk/QTGYKjM
N0eJFC9adJmOm6o1ijZ2p5ROF/S7AgMBAAGjQTA/MAkGA1UdEwQCMAAwCwYDVR0P
BAQDAgXgMCUGA1UdEQQeMByCDnd3dy50aWFvbnIuY29thwTAqImAhwTGC7VFMA0G
CSqGSIb3DQEBCwUAA4GBAFAQPJGVvPDn0CJa7doXa1odbIC3JAByqhKPy4kGEdRV
TqRnTgLmO9MiS3pbVFpnK6sIK7CEQmIzVSiUo4SrZ79s/MVmqtykH4qfGu2M2CIx
HNyhEYLzNJbVZHTotXSH8M2BjapwBN7cW8Uyblf1pNvUgOBWBs+zxUkiOtQhQIfJ
-----END CERTIFICATE-----
