Certificate:
    Data:
        Version: 3 (0x2)
        Serial Number: 1 (0x1)
    Signature Algorithm: sha256WithRSAEncryption
        Issuer: C=CN, ST=SH, O=ZhiSheng Inc, OU=Cert Agency, CN=AgencyCA
        Validity
            Not Before: Oct 28 08:33:56 2015 GMT
            Not After : Oct 27 08:33:56 2016 GMT
        Subject: C=CN, ST=SH, O=ZhiSheng Inc, OU=tiaonaer, CN=www.tiaonaer.com
        Subject Public Key Info:
            Public Key Algorithm: rsaEncryption
                Public-Key: (1024 bit)
                Modulus:
                    00:dd:e4:7c:3a:57:a0:e4:de:34:13:b4:f6:b1:ac:
                    e8:9e:f2:54:a6:96:82:d1:a7:c4:af:38:87:9d:d3:
                    e2:26:d2:89:fa:56:5a:49:86:67:44:ac:09:f8:3b:
                    a7:91:a2:8e:7f:ed:e8:ec:48:50:16:fd:a2:e4:0d:
                    69:9d:24:68:a2:bc:d8:99:e7:ca:ba:01:ba:1b:4c:
                    9a:cb:9d:d4:bd:95:8f:e3:2c:b8:d3:a8:f2:d7:2d:
                    45:89:fa:4c:b1:aa:2e:d7:97:b6:7d:5c:ce:9b:43:
                    8f:b5:91:15:b9:64:c6:a2:13:d1:55:d8:91:42:9e:
                    8a:1b:2b:2e:f0:17:71:ea:19
                Exponent: 65537 (0x10001)
        X509v3 extensions:
            X509v3 Basic Constraints: 
                CA:FALSE
            Netscape Comment: 
                OpenSSL Generated Certificate
            X509v3 Subject Key Identifier: 
                73:AA:77:39:BD:A3:30:18:5A:6E:87:2B:DB:5C:EC:AC:EA:11:85:2C
            X509v3 Authority Key Identifier: 
                keyid:B5:2E:F5:5A:BC:74:43:57:26:C4:3C:49:56:72:B3:E5:10:78:9D:02

    Signature Algorithm: sha256WithRSAEncryption
         75:99:ee:4b:a7:a9:ef:e9:2b:b8:11:c3:46:9f:f4:70:7b:6b:
         3f:e1:f6:a0:30:68:f8:bb:01:10:a4:bb:29:4d:25:22:7c:55:
         e1:72:78:c6:3e:65:be:85:68:33:9e:83:62:ab:61:b5:d5:ea:
         33:8a:71:96:c3:95:46:28:33:0e:fa:6d:99:e7:7c:6d:98:b6:
         5f:46:91:97:25:ed:cc:54:50:e7:f3:dc:05:92:a8:7b:e3:fc:
         76:bd:72:91:39:6e:23:78:52:cc:fe:cd:2e:06:6f:b2:24:0e:
         20:70:a8:1f:14:5b:bf:08:9d:57:b0:ae:a8:af:5b:7a:97:15:
         a5:15
-----BEGIN CERTIFICATE-----
MIICqjCCAhOgAwIBAgIBATANBgkqhkiG9w0BAQsFADBaMQswCQYDVQQGEwJDTjEL
MAkGA1UECAwCU0gxFTATBgNVBAoMDFpoaVNoZW5nIEluYzEUMBIGA1UECwwLQ2Vy
dCBBZ2VuY3kxETAPBgNVBAMMCEFnZW5jeUNBMB4XDTE1MTAyODA4MzM1NloXDTE2
MTAyNzA4MzM1NlowXzELMAkGA1UEBhMCQ04xCzAJBgNVBAgMAlNIMRUwEwYDVQQK
DAxaaGlTaGVuZyBJbmMxETAPBgNVBAsMCHRpYW9uYWVyMRkwFwYDVQQDDBB3d3cu
dGlhb25hZXIuY29tMIGfMA0GCSqGSIb3DQEBAQUAA4GNADCBiQKBgQDd5Hw6V6Dk
3jQTtPaxrOie8lSmloLRp8SvOIed0+Im0on6VlpJhmdErAn4O6eRoo5/7ejsSFAW
/aLkDWmdJGiivNiZ58q6AbobTJrLndS9lY/jLLjTqPLXLUWJ+kyxqi7Xl7Z9XM6b
Q4+1kRW5ZMaiE9FV2JFCnoobKy7wF3HqGQIDAQABo3sweTAJBgNVHRMEAjAAMCwG
CWCGSAGG+EIBDQQfFh1PcGVuU1NMIEdlbmVyYXRlZCBDZXJ0aWZpY2F0ZTAdBgNV
HQ4EFgQUc6p3Ob2jMBhabocr21zsrOoRhSwwHwYDVR0jBBgwFoAUtS71Wrx0Q1cm
xDxJVnKz5RB4nQIwDQYJKoZIhvcNAQELBQADgYEAdZnuS6ep7+kruBHDRp/0cHtr
P+H2oDBo+LsBEKS7KU0lInxV4XJ4xj5lvoVoM56DYqthtdXqM4pxlsOVRigzDvpt
med8bZi2X0aRlyXtzFRQ5/PcBZKoe+P8dr1ykTluI3hSzP7NLgZvsiQOIHCoHxRb
vwidV7CuqK9bepcVpRU=
-----END CERTIFICATE-----
