Certificate:
    Data:
        Version: 3 (0x2)
        Serial Number: 2 (0x2)
    Signature Algorithm: sha256WithRSAEncryption
        Issuer: C=CN, ST=SH, O=ZhiSheng Inc, OU=Cert Agency, CN=AgencyCA
        Validity
            Not Before: Oct 28 08:59:18 2015 GMT
            Not After : Oct 27 08:59:18 2016 GMT
        Subject: C=CN, ST=SH, O=ZhiSheng Inc, OU=tiaonaer, CN=www.tiaonaer.com
        Subject Public Key Info:
            Public Key Algorithm: rsaEncryption
                Public-Key: (1024 bit)
                Modulus:
                    00:dd:e4:7c:3a:57:a0:e4:de:34:13:b4:f6:b1:ac:
                    e8:9e:f2:54:a6:96:82:d1:a7:c4:af:38:87:9d:d3:
                    e2:26:d2:89:fa:56:5a:49:86:67:44:ac:09:f8:3b:
                    a7:91:a2:8e:7f:ed:e8:ec:48:50:16:fd:a2:e4:0d:
                    69:9d:24:68:a2:bc:d8:99:e7:ca:ba:01:ba:1b:4c:
                    9a:cb:9d:d4:bd:95:8f:e3:2c:b8:d3:a8:f2:d7:2d:
                    45:89:fa:4c:b1:aa:2e:d7:97:b6:7d:5c:ce:9b:43:
                    8f:b5:91:15:b9:64:c6:a2:13:d1:55:d8:91:42:9e:
                    8a:1b:2b:2e:f0:17:71:ea:19
                Exponent: 65537 (0x10001)
        X509v3 extensions:
            X509v3 Basic Constraints: 
                CA:FALSE
            X509v3 Key Usage: 
                Digital Signature, Non Repudiation, Key Encipherment
            X509v3 Subject Alternative Name: 
                DNS:www.tiaonaer.com, IP Address:192.168.137.128, IP Address:198.11.181.69
    Signature Algorithm: sha256WithRSAEncryption
         53:cd:7b:4c:e0:cb:d2:d7:93:b6:9d:1a:a6:33:30:15:ab:f3:
         22:6e:3e:f0:e9:66:eb:00:fc:00:8d:bb:a3:7c:c6:2d:7b:de:
         1c:98:87:9c:f8:bb:d9:3a:84:d3:00:3b:63:cc:df:2c:ec:f9:
         ef:71:da:16:b4:49:f5:10:4e:d1:77:b0:1c:70:95:fd:df:51:
         ee:01:a1:3a:5b:2b:96:e9:cc:9e:8b:32:f3:7e:c7:09:ba:2d:
         a0:65:f6:30:9b:65:33:99:1a:36:3f:6f:4d:1d:89:8b:3b:78:
         20:c2:5e:77:bd:6c:2f:01:f3:4a:33:2b:ef:e2:3f:9f:f3:d1:
         fd:8e
-----BEGIN CERTIFICATE-----
MIICcjCCAdugAwIBAgIBAjANBgkqhkiG9w0BAQsFADBaMQswCQYDVQQGEwJDTjEL
MAkGA1UECAwCU0gxFTATBgNVBAoMDFpoaVNoZW5nIEluYzEUMBIGA1UECwwLQ2Vy
dCBBZ2VuY3kxETAPBgNVBAMMCEFnZW5jeUNBMB4XDTE1MTAyODA4NTkxOFoXDTE2
MTAyNzA4NTkxOFowXzELMAkGA1UEBhMCQ04xCzAJBgNVBAgMAlNIMRUwEwYDVQQK
DAxaaGlTaGVuZyBJbmMxETAPBgNVBAsMCHRpYW9uYWVyMRkwFwYDVQQDDBB3d3cu
dGlhb25hZXIuY29tMIGfMA0GCSqGSIb3DQEBAQUAA4GNADCBiQKBgQDd5Hw6V6Dk
3jQTtPaxrOie8lSmloLRp8SvOIed0+Im0on6VlpJhmdErAn4O6eRoo5/7ejsSFAW
/aLkDWmdJGiivNiZ58q6AbobTJrLndS9lY/jLLjTqPLXLUWJ+kyxqi7Xl7Z9XM6b
Q4+1kRW5ZMaiE9FV2JFCnoobKy7wF3HqGQIDAQABo0MwQTAJBgNVHRMEAjAAMAsG
A1UdDwQEAwIF4DAnBgNVHREEIDAeghB3d3cudGlhb25hZXIuY29thwTAqImAhwTG
C7VFMA0GCSqGSIb3DQEBCwUAA4GBAFPNe0zgy9LXk7adGqYzMBWr8yJuPvDpZusA
/ACNu6N8xi173hyYh5z4u9k6hNMAO2PM3yzs+e9x2ha0SfUQTtF3sBxwlf3fUe4B
oTpbK5bpzJ6LMvN+xwm6LaBl9jCbZTOZGjY/b00diYs7eCDCXne9bC8B80ozK+/i
P5/z0f2O
-----END CERTIFICATE-----
