Certificate:
    Data:
        Version: 3 (0x2)
        Serial Number: 1 (0x1)
    Signature Algorithm: sha256WithRSAEncryption
        Issuer: C=CN, ST=SH, L=SH, O=ZhiSheng Inc, OU=Cert, CN=RootCA
        Validity
            Not Before: Oct 30 13:56:44 2015 GMT
            Not After : Oct 27 13:56:44 2025 GMT
        Subject: C=CN, ST=SH, O=ZhiSheng Inc, OU=Cert Agency, CN=AgencyCA
        Subject Public Key Info:
            Public Key Algorithm: rsaEncryption
                Public-Key: (1024 bit)
                Modulus:
                    00:a7:44:81:2d:c2:6a:9a:ac:65:6a:23:49:9c:98:
                    81:e6:f6:4a:19:4e:26:3b:a8:cc:20:c4:23:00:bd:
                    9a:b9:28:8f:c1:38:fe:95:36:d0:9c:71:6b:d5:32:
                    b2:84:aa:b4:3d:ef:8f:ab:dd:06:dc:0f:92:64:f2:
                    aa:63:dc:c0:a0:2f:26:21:ee:2a:c3:33:65:4e:d4:
                    79:98:7f:bd:52:25:22:68:a8:c8:2c:66:34:07:c7:
                    f5:00:a2:d3:9a:82:58:3f:b8:28:9c:50:a4:71:d5:
                    38:e6:75:0a:c5:d2:e4:57:07:80:b9:14:20:fa:d2:
                    d1:db:25:ee:83:e8:c6:7c:1f
                Exponent: 65537 (0x10001)
        X509v3 extensions:
            X509v3 Subject Key Identifier: 
                BB:2D:4A:0F:03:D9:7F:6D:57:91:09:B2:42:41:02:C7:2E:B8:E6:07
            X509v3 Authority Key Identifier: 
                keyid:41:22:40:05:27:46:71:3A:D6:D1:A3:DA:9F:A6:5D:B6:50:CD:B8:19

            X509v3 Basic Constraints: 
                CA:TRUE
    Signature Algorithm: sha256WithRSAEncryption
         10:cf:ec:20:5c:48:10:77:4e:08:3d:04:a9:30:59:aa:8a:88:
         bb:78:f6:29:9b:70:08:31:69:cf:1b:94:dc:c7:dd:d7:94:78:
         49:9f:80:8a:94:22:0b:98:4d:c1:97:b8:58:33:53:c6:10:d4:
         50:55:7a:25:7d:ce:3c:b6:a8:12:1a:d5:6f:7b:8d:a5:c1:35:
         a2:da:71:8f:49:ab:54:22:5e:36:be:72:d9:1e:9b:67:5c:5c:
         77:ae:c3:33:49:bb:36:74:55:59:15:a9:ed:e7:95:dc:43:1e:
         76:44:f0:0f:1b:99:3c:5a:b9:27:b3:70:a1:1b:b3:3f:c6:ed:
         ec:2f
-----BEGIN CERTIFICATE-----
MIICfjCCAeegAwIBAgIBATANBgkqhkiG9w0BAQsFADBeMQswCQYDVQQGEwJDTjEL
MAkGA1UECAwCU0gxCzAJBgNVBAcMAlNIMRUwEwYDVQQKDAxaaGlTaGVuZyBJbmMx
DTALBgNVBAsMBENlcnQxDzANBgNVBAMMBlJvb3RDQTAeFw0xNTEwMzAxMzU2NDRa
Fw0yNTEwMjcxMzU2NDRaMFoxCzAJBgNVBAYTAkNOMQswCQYDVQQIDAJTSDEVMBMG
A1UECgwMWmhpU2hlbmcgSW5jMRQwEgYDVQQLDAtDZXJ0IEFnZW5jeTERMA8GA1UE
AwwIQWdlbmN5Q0EwgZ8wDQYJKoZIhvcNAQEBBQADgY0AMIGJAoGBAKdEgS3Capqs
ZWojSZyYgeb2ShlOJjuozCDEIwC9mrkoj8E4/pU20Jxxa9UysoSqtD3vj6vdBtwP
kmTyqmPcwKAvJiHuKsMzZU7UeZh/vVIlImioyCxmNAfH9QCi05qCWD+4KJxQpHHV
OOZ1CsXS5FcHgLkUIPrS0dsl7oPoxnwfAgMBAAGjUDBOMB0GA1UdDgQWBBS7LUoP
A9l/bVeRCbJCQQLHLrjmBzAfBgNVHSMEGDAWgBRBIkAFJ0ZxOtbRo9qfpl22UM24
GTAMBgNVHRMEBTADAQH/MA0GCSqGSIb3DQEBCwUAA4GBABDP7CBcSBB3Tgg9BKkw
WaqKiLt49imbcAgxac8blNzH3deUeEmfgIqUIguYTcGXuFgzU8YQ1FBVeiV9zjy2
qBIa1W97jaXBNaLacY9Jq1QiXja+ctkem2dcXHeuwzNJuzZ0VVkVqe3nldxDHnZE
8A8bmTxauSezcKEbsz/G7ewv
-----END CERTIFICATE-----
-----BEGIN CERTIFICATE-----
MIICijCCAfOgAwIBAgIJAOqsPkSwl3MVMA0GCSqGSIb3DQEBCwUAMF4xCzAJBgNV
BAYTAkNOMQswCQYDVQQIDAJTSDELMAkGA1UEBwwCU0gxFTATBgNVBAoMDFpoaVNo
ZW5nIEluYzENMAsGA1UECwwEQ2VydDEPMA0GA1UEAwwGUm9vdENBMB4XDTE1MTAz
MDEzNDUyN1oXDTI1MTAyNzEzNDUyN1owXjELMAkGA1UEBhMCQ04xCzAJBgNVBAgM
AlNIMQswCQYDVQQHDAJTSDEVMBMGA1UECgwMWmhpU2hlbmcgSW5jMQ0wCwYDVQQL
DARDZXJ0MQ8wDQYDVQQDDAZSb290Q0EwgZ8wDQYJKoZIhvcNAQEBBQADgY0AMIGJ
AoGBAKDpVQYmY1bnwDxTlNXAnq48X41d+SrHso3omZxi1n1ZJ04OxaXloMjqAYZq
NZ415df3DETSlq9tbYMz52uvVmhlmcaGReOauhArOHmIOYp3GeVOCoDW8qw6BNjG
kmeNThUaSR3g4jmXFOuIFvC9UsW403Q6an67MQSOM1FLEr4bAgMBAAGjUDBOMB0G
A1UdDgQWBBRBIkAFJ0ZxOtbRo9qfpl22UM24GTAfBgNVHSMEGDAWgBRBIkAFJ0Zx
OtbRo9qfpl22UM24GTAMBgNVHRMEBTADAQH/MA0GCSqGSIb3DQEBCwUAA4GBAHDE
J3Wb++Lp1CKYf/W4KoSe73Tt680p3vfX7NY67yQcoVpSHJHMhirWjSNeI94pZzJf
Mm0ofBFtZ9j2gR0CZ56BnaX3s9ZHcbjsm1WJzuXQNC7sZqHzrABkXv+hXXZVHujr
ZtSF94F4CT2UWKr7L6hVoaD6Rhsa/NfCyiXhsB4D
-----END CERTIFICATE-----
